target datalayout = "e-m:e-p270:32:32-p271:32:32-p272:64:64-i64:64-i128:128-f80:128-n8:16:32:64-S128"
target triple = "x86_64-pc-linux-gnu"

%struct.vars = type { ptr, ptr, ptr, i32, i32, i32, i32, i32, i32, i32, ptr, i64, [10 x ptr], ptr, ptr, i16, ptr, ptr, ptr, ptr, i32, ptr, ptr, ptr, i32, i64 }
%struct.cnfa = type { i32, i32, i32, i32, i32, [2 x i16], [2 x i16], ptr, ptr, ptr, i32, i32 }
%struct.subre = type { i8, i8, i8, i32, i32, i32, i16, i16, ptr, ptr, ptr, ptr, %struct.cnfa, ptr }

; Function Attrs: nounwind uwtable
define internal void @freecnfa(ptr noundef %0) #0 {
  %2 = alloca ptr, align 8
  store ptr %0, ptr %2, align 8
  %3 = load ptr, ptr %2, align 8
  %4 = getelementptr inbounds nuw %struct.cnfa, ptr %3, i32 0, i32 7
  %5 = load ptr, ptr %4, align 8
  call void @pfree(ptr noundef %5)
  %6 = load ptr, ptr %2, align 8
  %7 = getelementptr inbounds nuw %struct.cnfa, ptr %6, i32 0, i32 8
  %8 = load ptr, ptr %7, align 8
  call void @pfree(ptr noundef %8)
  %9 = load ptr, ptr %2, align 8
  %10 = getelementptr inbounds nuw %struct.cnfa, ptr %9, i32 0, i32 9
  %11 = load ptr, ptr %10, align 8
  call void @pfree(ptr noundef %11)
  %12 = load ptr, ptr %2, align 8
  %13 = getelementptr inbounds nuw %struct.cnfa, ptr %12, i32 0, i32 0
  store i32 0, ptr %13, align 8
  ret void
}

; Function Attrs: nounwind uwtable
define internal void @freesrnode(ptr noundef %0, ptr noundef %1) #0 {
  %3 = alloca ptr, align 8
  %4 = alloca ptr, align 8
  store ptr %0, ptr %3, align 8
  store ptr %1, ptr %4, align 8
  %5 = load ptr, ptr %4, align 8
  %6 = icmp eq ptr %5, null
  br i1 %6, label %7, label %8

7:                                                ; preds = %2
  br label %46

8:                                                ; preds = %2
  %9 = load ptr, ptr %4, align 8
  %10 = getelementptr inbounds nuw %struct.subre, ptr %9, i32 0, i32 12
  %11 = getelementptr inbounds nuw %struct.cnfa, ptr %10, i32 0, i32 0
  %12 = load i32, ptr %11, align 8
  %13 = icmp eq i32 %12, 0
  br i1 %13, label %17, label %14

14:                                               ; preds = %8
  %15 = load ptr, ptr %4, align 8
  %16 = getelementptr inbounds nuw %struct.subre, ptr %15, i32 0, i32 12
  call void @freecnfa(ptr noundef %16)
  br label %17

17:                                               ; preds = %14, %8
  %18 = load ptr, ptr %4, align 8
  %19 = getelementptr inbounds nuw %struct.subre, ptr %18, i32 0, i32 1
  store i8 0, ptr %19, align 1
  %20 = load ptr, ptr %4, align 8
  %21 = getelementptr inbounds nuw %struct.subre, ptr %20, i32 0, i32 9
  store ptr null, ptr %21, align 8
  %22 = load ptr, ptr %4, align 8
  %23 = getelementptr inbounds nuw %struct.subre, ptr %22, i32 0, i32 8
  store ptr null, ptr %23, align 8
  %24 = load ptr, ptr %4, align 8
  %25 = getelementptr inbounds nuw %struct.subre, ptr %24, i32 0, i32 11
  store ptr null, ptr %25, align 8
  %26 = load ptr, ptr %4, align 8
  %27 = getelementptr inbounds nuw %struct.subre, ptr %26, i32 0, i32 10
  store ptr null, ptr %27, align 8
  %28 = load ptr, ptr %3, align 8
  %29 = icmp ne ptr %28, null
  br i1 %29, label %30, label %44

30:                                               ; preds = %17
  %31 = load ptr, ptr %3, align 8
  %32 = getelementptr inbounds nuw %struct.vars, ptr %31, i32 0, i32 18
  %33 = load ptr, ptr %32, align 8
  %34 = icmp ne ptr %33, null
  br i1 %34, label %35, label %44

35:                                               ; preds = %30
  %36 = load ptr, ptr %3, align 8
  %37 = getelementptr inbounds nuw %struct.vars, ptr %36, i32 0, i32 19
  %38 = load ptr, ptr %37, align 8
  %39 = load ptr, ptr %4, align 8
  %40 = getelementptr inbounds nuw %struct.subre, ptr %39, i32 0, i32 8
  store ptr %38, ptr %40, align 8
  %41 = load ptr, ptr %4, align 8
  %42 = load ptr, ptr %3, align 8
  %43 = getelementptr inbounds nuw %struct.vars, ptr %42, i32 0, i32 19
  store ptr %41, ptr %43, align 8
  br label %46

44:                                               ; preds = %30, %17
  %45 = load ptr, ptr %4, align 8
  call void @pfree(ptr noundef %45)
  br label %46

46:                                               ; preds = %7, %44, %35
  ret void
}