; Function Attrs: nounwind uwtable
define internal fastcc void @freesrnode(ptr noundef captures(address_is_null) %0, ptr noundef %1) unnamed_addr #0 {
  %3 = icmp eq ptr %1, null
  br i1 %3, label %25, label %4

4:                                                ; preds = %2
  %5 = getelementptr inbounds nuw i8, ptr %1, i64 56
  %6 = load i32, ptr %5, align 8
  %7 = icmp eq i32 %6, 0
  br i1 %7, label %15, label %8

8:                                                ; preds = %4
  %9 = getelementptr inbounds nuw i8, ptr %1, i64 88
  %10 = load ptr, ptr %9, align 8
  tail call void @pfree(ptr noundef %10) #20
  %11 = getelementptr inbounds nuw i8, ptr %1, i64 96
  %12 = load ptr, ptr %11, align 8
  tail call void @pfree(ptr noundef %12) #20
  %13 = getelementptr inbounds nuw i8, ptr %1, i64 104
  %14 = load ptr, ptr %13, align 8
  tail call void @pfree(ptr noundef %14) #20
  store i32 0, ptr %5, align 8
  br label %15

15:                                               ; preds = %8, %4
  %16 = getelementptr inbounds nuw i8, ptr %1, i64 1
  store i8 0, ptr %16, align 1
  %17 = getelementptr inbounds nuw i8, ptr %1, i64 24
  %.not = icmp eq ptr %0, null
  tail call void @llvm.memset.p0.i64(ptr noundef nonnull align 8 dereferenceable(32) %17, i8 0, i64 32, i1 false)
  br i1 %.not, label %24, label %18

18:                                               ; preds = %15
  %19 = getelementptr inbounds nuw i8, ptr %0, i64 192
  %20 = load ptr, ptr %19, align 8
  %.not16 = icmp eq ptr %20, null
  br i1 %.not16, label %24, label %21

21:                                               ; preds = %18
  %22 = getelementptr inbounds nuw i8, ptr %0, i64 200
  %23 = load ptr, ptr %22, align 8
  store ptr %23, ptr %17, align 8
  store ptr %1, ptr %22, align 8
  br label %25

24:                                               ; preds = %18, %15
  tail call void @pfree(ptr noundef nonnull %1) #20
  br label %25

25:                                               ; preds = %2, %24, %21
  ret void
}